; Function Attrs: nounwind uwtable
define dso_local ptr @luaL_newstate() local_unnamed_addr #0 {
  %1 = tail call ptr @lua_newstate(ptr noundef nonnull @l_alloc, ptr noundef null) #17
  %.not = icmp eq ptr %1, null
  br i1 %.not, label %4, label %2

2:                                                ; preds = %0
  %3 = tail call ptr @lua_atpanic(ptr noundef nonnull %1, ptr noundef nonnull @panic) #17
  br label %4

4:                                                ; preds = %2, %0
  ret ptr %1
}